target datalayout = "e-m:e-p270:32:32-p271:32:32-p272:64:64-i64:64-i128:128-f80:128-n8:16:32:64-S128"
target triple = "x86_64-pc-linux-gnu"

%struct._value_string = type { i32, ptr }
%struct._packet_info = type { ptr, ptr, i32, i32, %struct.nstime_t, %struct.nstime_t, %struct.nstime_t, i8, ptr, ptr, ptr, ptr, %struct._address, %struct._address, %struct._address, %struct._address, %struct._address, %struct._address, i32, ptr, i8, [3 x i8], %struct.anon, i32, i32, i32, i32, ptr, i8, ptr, ptr, i16, i16, i32, i32, i16, i32, i32, ptr, ptr, ptr, i8, i8, i16, i16, i16, i32, i16, i16, ptr, ptr, ptr, ptr, ptr, i32, i32 }
%struct.nstime_t = type { i64, i32 }
%struct._address = type { i32, i32, ptr, ptr }
%struct.anon = type { i8, [3 x i8] }

@hf_cba_acco_info_max = internal global i32 0, align 4
@hf_cba_acco_info_curr = internal global i32 0, align 4
@dcom_hresult_vals = external constant [0 x %struct._value_string], align 8
@.str.259 = private unnamed_addr constant [17 x i8] c"Unknown (0x%08x)\00", align 1
@.str.263 = private unnamed_addr constant [14 x i8] c": %u/%u -> %s\00", align 1

; Function Attrs: null_pointer_is_valid sspstrong uwtable
define internal i32 @dissect_ICBAAccoMgt_GetInfo_resp(ptr noundef %0, i32 noundef %1, ptr noundef %2, ptr noundef %3, ptr noundef %4, ptr noundef %5) #0 {
  %7 = alloca ptr, align 8
  %8 = alloca i32, align 4
  %9 = alloca ptr, align 8
  %10 = alloca ptr, align 8
  %11 = alloca ptr, align 8
  %12 = alloca ptr, align 8
  %13 = alloca i32, align 4
  %14 = alloca i32, align 4
  %15 = alloca i32, align 4
  store ptr %0, ptr %7, align 8
  store i32 %1, ptr %8, align 4
  store ptr %2, ptr %9, align 8
  store ptr %3, ptr %10, align 8
  store ptr %4, ptr %11, align 8
  store ptr %5, ptr %12, align 8
  call void @llvm.lifetime.start.p0(i64 4, ptr %13) #12
  call void @llvm.lifetime.start.p0(i64 4, ptr %14) #12
  call void @llvm.lifetime.start.p0(i64 4, ptr %15) #12
  %16 = load ptr, ptr %7, align 8
  %17 = load i32, ptr %8, align 4
  %18 = load ptr, ptr %9, align 8
  %19 = load ptr, ptr %10, align 8
  %20 = load ptr, ptr %11, align 8
  %21 = load ptr, ptr %12, align 8
  %22 = call i32 @dissect_dcom_that(ptr noundef %16, i32 noundef %17, ptr noundef %18, ptr noundef %19, ptr noundef %20, ptr noundef %21)
  store i32 %22, ptr %8, align 4
  %23 = load ptr, ptr %7, align 8
  %24 = load i32, ptr %8, align 4
  %25 = load ptr, ptr %9, align 8
  %26 = load ptr, ptr %10, align 8
  %27 = load ptr, ptr %11, align 8
  %28 = load ptr, ptr %12, align 8
  %29 = load i32, ptr @hf_cba_acco_info_max, align 4
  %30 = call i32 @dissect_ndr_uint32(ptr noundef %23, i32 noundef %24, ptr noundef %25, ptr noundef %26, ptr noundef %27, ptr noundef %28, i32 noundef %29, ptr noundef %13)
  store i32 %30, ptr %8, align 4
  %31 = load ptr, ptr %7, align 8
  %32 = load i32, ptr %8, align 4
  %33 = load ptr, ptr %9, align 8
  %34 = load ptr, ptr %10, align 8
  %35 = load ptr, ptr %11, align 8
  %36 = load ptr, ptr %12, align 8
  %37 = load i32, ptr @hf_cba_acco_info_curr, align 4
  %38 = call i32 @dissect_ndr_uint32(ptr noundef %31, i32 noundef %32, ptr noundef %33, ptr noundef %34, ptr noundef %35, ptr noundef %36, i32 noundef %37, ptr noundef %14)
  store i32 %38, ptr %8, align 4
  %39 = load ptr, ptr %7, align 8
  %40 = load i32, ptr %8, align 4
  %41 = load ptr, ptr %9, align 8
  %42 = load ptr, ptr %10, align 8
  %43 = load ptr, ptr %11, align 8
  %44 = load ptr, ptr %12, align 8
  %45 = call i32 @dissect_dcom_HRESULT(ptr noundef %39, i32 noundef %40, ptr noundef %41, ptr noundef %42, ptr noundef %43, ptr noundef %44, ptr noundef %15)
  store i32 %45, ptr %8, align 4
  %46 = load ptr, ptr %9, align 8
  %47 = getelementptr inbounds nuw %struct._packet_info, ptr %46, i32 0, i32 1
  %48 = load ptr, ptr %47, align 8
  %49 = load i32, ptr %14, align 4
  %50 = load i32, ptr %13, align 4
  %51 = load i32, ptr %15, align 4
  %52 = call ptr @val_to_str(i32 noundef %51, ptr noundef @dcom_hresult_vals, ptr noundef @.str.259)
  call void (ptr, i32, ptr, ...) @col_append_fstr(ptr noundef %48, i32 noundef 25, ptr noundef @.str.263, i32 noundef %49, i32 noundef %50, ptr noundef %52)
  %53 = load i32, ptr %8, align 4
  call void @llvm.lifetime.end.p0(i64 4, ptr %15) #12
  call void @llvm.lifetime.end.p0(i64 4, ptr %14) #12
  call void @llvm.lifetime.end.p0(i64 4, ptr %13) #12
  ret i32 %53
}